"File: q1.c          Assembler  Version HGASM0202      Page 1


   1  0000              ; Generated by holtek-gcc v3.19, Sat Aug 13 15:23:20 2022
   2  0000              ; 
   3  0000              ; Configuration:
   4  0000              ;       without long instruction
   5  0000              ;       Single ROM, Multi-RAM
   6  0000              ;       bits_per_rom_unit:15
   7  0000              ;       with mp1
   8  0000              ;       with tbhp, address(0x1f)
   9  0000              ;          Use ret-const
  10  0000              ;       
  11  0000              ;       
  12  0000              ;       
  13  0000              ; use 'tabrdc' instead of 'tabrd'
  14  0000              ;       
  15  0000              
  16  0000              #pragma translator "holtek-gcc 4.6.4" "3.19" "build 20130711"
  17  0000              ; Rebuild 718
  18  0000              
  19  0000              ir equ [2]
  20  0000              mp equ [3]
  21  0000              sbp equ [7]
  22  0000              acc equ [5]
  23  0000              bp equ [4]
  24  0000              status equ [10]
  25  0000              c equ [10].0
  26  0000              ac equ [10].1
  27  0000              z equ [10].2
  28  0000              ov equ [10].3
  29  0000              intc equ [11]
  30  0000              
  31  0000              extern ra:byte
  32  0000              extern rb:byte
  33  0000              extern rc:byte
  34  0000              extern rd:byte
  35  0000              extern re:byte
  36  0000              extern rf:byte
  37  0000              extern rg:byte
  38  0000              extern rh:byte
  39  0000              extern _Crom2Prom:near
  40  0000              extern _Crom2PromNext:near
  41  0000              
  42  0000              RAMBANK 0 @HCCINIT, @HCCINIT0
  43  0000              
  44  0000              RAMBANK 0 @BITDATASEC, @BITDATASEC1
  45  0000              @HCCINIT	.section 'data'
  46  0000              @HCCINIT0	.section 'data'
  47  0000              @BITDATASEC	 .section 'data'
  48  0000              @BITDATASEC1	 .section 'data'
  49  0000              
  50  0000              #pragma debug scope 1 1
  51  0000              	extern __DELAY3:near
  52  0000              	extern __DELAYX3:near
  53  0000              	extern __DELAYX6:near
  54  0000              	extern __DELAYY5:near
  55  0000              	extern __DELAYY3:near
  56  0000              	extern _builtin_holtek_delay_2:byte
  57  0000              ___wdtc equ [25]
  58  0000              ___smod equ [11]
  59  0000              ___pbc equ [59]
"File: q1.ASM        Assembler  Version HGASM0202      Page 2

  60  0000              ___pcc equ [62]
  61  0000              ___pc equ [61]
  62  0000              ___tbc equ [27]
  63  0000              ___ptm0c1 equ [42]
  64  0000              ___ptm0c0 equ [41]
  65  0000              ___intc0 equ [14]
  66  0000              ___intc1 equ [15]
  67  0000              ___mfi0 equ [17]
  68  0000              ___sadc1 equ [35]
  69  0000              ___sadc2 equ [36]
  70  0000              ___sadc0 equ [34]
  71  0000              ___pbsr equ [39]
  72  0000              public _main
  73  0000              #pragma debug scope 2 1

  15  0000              #line 15 "C:\Users\992852\Desktop\EVC CODE\EVC Code-HT66 - Digital SUP -Complete\karamozi\my_project\q1\q1.c"
  15  0000              IFDEF WITH_DEFAULT_STARTUP
  15  0000              extern _main_initial0:near
  15  0000              extern _main_startup:near
  15  0000              ENDIF
  15  0000              
  15  0000              ROMBANK 0 @start
  15  0000              @start .section com_l 'code'
  15  0000              _main_startup1:
  15  0000              @start .section com_e 'code'
  15  0000  2800     R  	jmp _main
  15  0001              
  15  0000              _main .section 'code'
  15  0000              _main proc
  17  0000              #line 17 "C:\Users\992852\Desktop\EVC CODE\EVC Code-HT66 - Digital SUP -Complete\karamozi\my_project\q1\q1.c"
  17  0000  3519        	clr [25].2
  18  0001              #line 18 "C:\Users\992852\Desktop\EVC CODE\EVC Code-HT66 - Digital SUP -Complete\karamozi\my_project\q1\q1.c"
  18  0001  3099        	set [25].1
  19  0002              #line 19 "C:\Users\992852\Desktop\EVC CODE\EVC Code-HT66 - Digital SUP -Complete\karamozi\my_project\q1\q1.c"
  19  0002  3019        	set [25].0
  22  0003              #line 22 "C:\Users\992852\Desktop\EVC CODE\EVC Code-HT66 - Digital SUP -Complete\karamozi\my_project\q1\q1.c"
  22  0003  3399        	set [25].7
  23  0004              #line 23 "C:\Users\992852\Desktop\EVC CODE\EVC Code-HT66 - Digital SUP -Complete\karamozi\my_project\q1\q1.c"
  23  0004  3719        	clr [25].6
  24  0005              #line 24 "C:\Users\992852\Desktop\EVC CODE\EVC Code-HT66 - Digital SUP -Complete\karamozi\my_project\q1\q1.c"
  24  0005  3299        	set [25].5
  25  0006              #line 25 "C:\Users\992852\Desktop\EVC CODE\EVC Code-HT66 - Digital SUP -Complete\karamozi\my_project\q1\q1.c"
  25  0006  3619        	clr [25].4
  26  0007              #line 26 "C:\Users\992852\Desktop\EVC CODE\EVC Code-HT66 - Digital SUP -Complete\karamozi\my_project\q1\q1.c"
  26  0007  3199        	set [25].3
  28  0008              #line 28 "C:\Users\992852\Desktop\EVC CODE\EVC Code-HT66 - Digital SUP -Complete\karamozi\my_project\q1\q1.c"
  28  0008  300B        	set [11].0
  31  0009              #line 31 "C:\Users\992852\Desktop\EVC CODE\EVC Code-HT66 - Digital SUP -Complete\karamozi\my_project\q1\q1.c"
  31  0009  303B        	set [59].0
  34  000A              #line 34 "C:\Users\992852\Desktop\EVC CODE\EVC Code-HT66 - Digital SUP -Complete\karamozi\my_project\q1\q1.c"
  34  000A  343E        	clr [62].0
  35  000B              #line 35 "C:\Users\992852\Desktop\EVC CODE\EVC Code-HT66 - Digital SUP -Complete\karamozi\my_project\q1\q1.c"
  35  000B  343D        	clr [61].0
  38  000C              #line 38 "C:\Users\992852\Desktop\EVC CODE\EVC Code-HT66 - Digital SUP -Complete\karamozi\my_project\q1\q1.c"
  38  000C  34BE        	clr [62].1
  39  000D              #line 39 "C:\Users\992852\Desktop\EVC CODE\EVC Code-HT66 - Digital SUP -Complete\karamozi\my_project\q1\q1.c"
  39  000D  30BD        	set [61].1
  41  000E              #line 41 "C:\Users\992852\Desktop\EVC CODE\EVC Code-HT66 - Digital SUP -Complete\karamozi\my_project\q1\q1.c"
  41  000E  353E        	clr [62].2
  42  000F              #line 42 "C:\Users\992852\Desktop\EVC CODE\EVC Code-HT66 - Digital SUP -Complete\karamozi\my_project\q1\q1.c"
"File: q1.c          Assembler  Version HGASM0202      Page 3

  42  000F  313D        	set [61].2
  44  0010              #line 44 "C:\Users\992852\Desktop\EVC CODE\EVC Code-HT66 - Digital SUP -Complete\karamozi\my_project\q1\q1.c"
  44  0010  1F00     R  	clr _last_zc[0]
  46  0011              #line 46 "C:\Users\992852\Desktop\EVC CODE\EVC Code-HT66 - Digital SUP -Complete\karamozi\my_project\q1\q1.c"
  46  0011  0F71        	mov a,113
  46  0012  0080     R  	mov _trig[0],a
  46  0013  0F02        	mov a,2
  46  0014  0080     R  	mov _trig[1],a
  47  0015              #line 47 "C:\Users\992852\Desktop\EVC CODE\EVC Code-HT66 - Digital SUP -Complete\karamozi\my_project\q1\q1.c"
  47  0015  0F72        	mov a,114
  47  0016  0080     R  	mov _lastper[0],a
  47  0017  0F02        	mov a,2
  47  0018  0080     R  	mov _lastper[1],a
  48  0019              #line 48 "C:\Users\992852\Desktop\EVC CODE\EVC Code-HT66 - Digital SUP -Complete\karamozi\my_project\q1\q1.c"
  48  0019  1F00     R  	clr _adc_val[0]
  48  001A  1F00     R  	clr _adc_val[1]
  48  001B  1F00     R  	clr _adc_val[2]
  48  001C  1F00     R  	clr _adc_val[3]
  49  001D              #line 49 "C:\Users\992852\Desktop\EVC CODE\EVC Code-HT66 - Digital SUP -Complete\karamozi\my_project\q1\q1.c"
  49  001D  0F08        	mov a,8
  49  001E  0080     R  	mov _cntr[0],a
  52  001F              #line 52 "C:\Users\992852\Desktop\EVC CODE\EVC Code-HT66 - Digital SUP -Complete\karamozi\my_project\q1\q1.c"
  52  001F  331B        	set [27].6
  55  0020              #line 55 "C:\Users\992852\Desktop\EVC CODE\EVC Code-HT66 - Digital SUP -Complete\karamozi\my_project\q1\q1.c"
  55  0020  351B        	clr [27].2
  56  0021              #line 56 "C:\Users\992852\Desktop\EVC CODE\EVC Code-HT66 - Digital SUP -Complete\karamozi\my_project\q1\q1.c"
  56  0021  349B        	clr [27].1
  57  0022              #line 57 "C:\Users\992852\Desktop\EVC CODE\EVC Code-HT66 - Digital SUP -Complete\karamozi\my_project\q1\q1.c"
  57  0022  341B        	clr [27].0
  61  0023              #line 61 "C:\Users\992852\Desktop\EVC CODE\EVC Code-HT66 - Digital SUP -Complete\karamozi\my_project\q1\q1.c"
  61  0023  33AA        	set [42].7
  62  0024              #line 62 "C:\Users\992852\Desktop\EVC CODE\EVC Code-HT66 - Digital SUP -Complete\karamozi\my_project\q1\q1.c"
  62  0024  332A        	set [42].6
  65  0025              #line 65 "C:\Users\992852\Desktop\EVC CODE\EVC Code-HT66 - Digital SUP -Complete\karamozi\my_project\q1\q1.c"
  65  0025  3729        	clr [41].6
  66  0026              #line 66 "C:\Users\992852\Desktop\EVC CODE\EVC Code-HT66 - Digital SUP -Complete\karamozi\my_project\q1\q1.c"
  66  0026  32A9        	set [41].5
  67  0027              #line 67 "C:\Users\992852\Desktop\EVC CODE\EVC Code-HT66 - Digital SUP -Complete\karamozi\my_project\q1\q1.c"
  67  0027  3229        	set [41].4
  69  0028              #line 69 "C:\Users\992852\Desktop\EVC CODE\EVC Code-HT66 - Digital SUP -Complete\karamozi\my_project\q1\q1.c"
  69  0028  302A        	set [42].0
  72  0029              #line 72 "C:\Users\992852\Desktop\EVC CODE\EVC Code-HT66 - Digital SUP -Complete\karamozi\my_project\q1\q1.c"
  72  0029  310E        	set [14].2
  74  002A              #line 74 "C:\Users\992852\Desktop\EVC CODE\EVC Code-HT66 - Digital SUP -Complete\karamozi\my_project\q1\q1.c"
  74  002A  360F        	clr [15].4
  75  002B              #line 75 "C:\Users\992852\Desktop\EVC CODE\EVC Code-HT66 - Digital SUP -Complete\karamozi\my_project\q1\q1.c"
  75  002B  300F        	set [15].0
  77  002C              #line 77 "C:\Users\992852\Desktop\EVC CODE\EVC Code-HT66 - Digital SUP -Complete\karamozi\my_project\q1\q1.c"
  77  002C  3691        	clr [17].5
  78  002D              #line 78 "C:\Users\992852\Desktop\EVC CODE\EVC Code-HT66 - Digital SUP -Complete\karamozi\my_project\q1\q1.c"
  78  002D  3091        	set [17].1
  80  002E              #line 80 "C:\Users\992852\Desktop\EVC CODE\EVC Code-HT66 - Digital SUP -Complete\karamozi\my_project\q1\q1.c"
  80  002E  300E        	set [14].0
  82  002F              #line 82 "C:\Users\992852\Desktop\EVC CODE\EVC Code-HT66 - Digital SUP -Complete\karamozi\my_project\q1\q1.c"
  82  002F  339B        	set [27].7
  86  0030              #line 86 "C:\Users\992852\Desktop\EVC CODE\EVC Code-HT66 - Digital SUP -Complete\karamozi\my_project\q1\q1.c"
  86  0030  3523        	clr [35].2
  87  0031              #line 87 "C:\Users\992852\Desktop\EVC CODE\EVC Code-HT66 - Digital SUP -Complete\karamozi\my_project\q1\q1.c"
  87  0031  30A3        	set [35].1
  88  0032              #line 88 "C:\Users\992852\Desktop\EVC CODE\EVC Code-HT66 - Digital SUP -Complete\karamozi\my_project\q1\q1.c"
"File: q1.c          Assembler  Version HGASM0202      Page 4

  88  0032  3023        	set [35].0
  91  0033              #line 91 "C:\Users\992852\Desktop\EVC CODE\EVC Code-HT66 - Digital SUP -Complete\karamozi\my_project\q1\q1.c"
  91  0033  35A4        	clr [36].3
  92  0034              #line 92 "C:\Users\992852\Desktop\EVC CODE\EVC Code-HT66 - Digital SUP -Complete\karamozi\my_project\q1\q1.c"
  92  0034  3524        	clr [36].2
  93  0035              #line 93 "C:\Users\992852\Desktop\EVC CODE\EVC Code-HT66 - Digital SUP -Complete\karamozi\my_project\q1\q1.c"
  93  0035  34A4        	clr [36].1
  94  0036              #line 94 "C:\Users\992852\Desktop\EVC CODE\EVC Code-HT66 - Digital SUP -Complete\karamozi\my_project\q1\q1.c"
  94  0036  3424        	clr [36].0
  97  0037              #line 97 "C:\Users\992852\Desktop\EVC CODE\EVC Code-HT66 - Digital SUP -Complete\karamozi\my_project\q1\q1.c"
  97  0037  3222        	set [34].4
 100  0038              #line 100 "C:\Users\992852\Desktop\EVC CODE\EVC Code-HT66 - Digital SUP -Complete\karamozi\my_project\q1\q1.c"
 100  0038  0FF8        	mov a,248
 100  0039  06A2        	andm a,[34]
 103  003A              #line 103 "C:\Users\992852\Desktop\EVC CODE\EVC Code-HT66 - Digital SUP -Complete\karamozi\my_project\q1\q1.c"
 103  003A  0700     R  	mov a,_adc_ch1[0]
 103  003B  05A2        	orm a,[34]
 105  003C              #line 105 "C:\Users\992852\Desktop\EVC CODE\EVC Code-HT66 - Digital SUP -Complete\karamozi\my_project\q1\q1.c"
 105  003C  30A7        	set [39].1
 107  003D              #line 107 "C:\Users\992852\Desktop\EVC CODE\EVC Code-HT66 - Digital SUP -Complete\karamozi\my_project\q1\q1.c"
 107  003D  32A2        	set [34].5
 110  003E              #line 110 "C:\Users\992852\Desktop\EVC CODE\EVC Code-HT66 - Digital SUP -Complete\karamozi\my_project\q1\q1.c"
 110  003E  370F        	clr [15].6
 111  003F              #line 111 "C:\Users\992852\Desktop\EVC CODE\EVC Code-HT66 - Digital SUP -Complete\karamozi\my_project\q1\q1.c"
 111  003F  310F        	set [15].2
 114  0040              #line 114 "C:\Users\992852\Desktop\EVC CODE\EVC Code-HT66 - Digital SUP -Complete\karamozi\my_project\q1\q1.c"
 114  0040  37A2        	clr [34].7
 115  0041              #line 115 "C:\Users\992852\Desktop\EVC CODE\EVC Code-HT66 - Digital SUP -Complete\karamozi\my_project\q1\q1.c"
 115  0041  33A2        	set [34].7
 116  0042              #line 116 "C:\Users\992852\Desktop\EVC CODE\EVC Code-HT66 - Digital SUP -Complete\karamozi\my_project\q1\q1.c"
 116  0042  37A2        	clr [34].7
 116  0043              _L4:
 120  0043              #line 120 "C:\Users\992852\Desktop\EVC CODE\EVC Code-HT66 - Digital SUP -Complete\karamozi\my_project\q1\q1.c"
 120  0043  1080     R  	sz _cntr[0]
 120  0044  2800     R  	jmp _L4
 122  0045              #line 122 "C:\Users\992852\Desktop\EVC CODE\EVC Code-HT66 - Digital SUP -Complete\karamozi\my_project\q1\q1.c"
 122  0045  0FFF        	mov a,255
 122  0046  0200     R  	sub a,_adc_avg[0]
 122  0047  0F03        	mov a,3
 122  0048  1200     R  	sbc a,_adc_avg[1]
 122  0049  380A        	snz c
 122  004A  2800     R  	jmp _L5
 124  004B              #line 124 "C:\Users\992852\Desktop\EVC CODE\EVC Code-HT66 - Digital SUP -Complete\karamozi\my_project\q1\q1.c"
 124  004B  0FAB        	mov a,-85
 124  004C  0080     R  	mov _lastper[0],a
 124  004D  0F03        	mov a,3
 124  004E  0080     R  	mov _lastper[1],a
 124  004F  2800     R  	jmp _L4
 124  0050              _L5:
 128  0050              #line 128 "C:\Users\992852\Desktop\EVC CODE\EVC Code-HT66 - Digital SUP -Complete\karamozi\my_project\q1\q1.c"
 128  0050  0FFF        	mov a,255
 128  0051  0200     R  	sub a,_adc_avg[0]
 128  0052  0F07        	mov a,7
 128  0053  1200     R  	sbc a,_adc_avg[1]
 128  0054  380A        	snz c
 128  0055  2800     R  	jmp _L7
 130  0056              #line 130 "C:\Users\992852\Desktop\EVC CODE\EVC Code-HT66 - Digital SUP -Complete\karamozi\my_project\q1\q1.c"
 130  0056  0FB1        	mov a,-79
 130  0057  0080     R  	mov _lastper[0],a
 130  0058  0F02        	mov a,2
"File: q1.c          Assembler  Version HGASM0202      Page 5

 130  0059  0080     R  	mov _lastper[1],a
 130  005A  2800     R  	jmp _L4
 130  005B              _L7:
 134  005B              #line 134 "C:\Users\992852\Desktop\EVC CODE\EVC Code-HT66 - Digital SUP -Complete\karamozi\my_project\q1\q1.c"
 134  005B  0FFF        	mov a,255
 134  005C  0200     R  	sub a,_adc_avg[0]
 134  005D  0F0B        	mov a,11
 134  005E  1200     R  	sbc a,_adc_avg[1]
 134  005F  380A        	snz c
 134  0060  2800     R  	jmp _L8
 136  0061              #line 136 "C:\Users\992852\Desktop\EVC CODE\EVC Code-HT66 - Digital SUP -Complete\karamozi\my_project\q1\q1.c"
 136  0061  0FB7        	mov a,-73
 136  0062  0080     R  	mov _lastper[0],a
 136  0063  0F01        	mov a,1
 136  0064  0080     R  	mov _lastper[1],a
 136  0065  2800     R  	jmp _L4
 136  0066              _L8:
 142  0066              #line 142 "C:\Users\992852\Desktop\EVC CODE\EVC Code-HT66 - Digital SUP -Complete\karamozi\my_project\q1\q1.c"
 142  0066  0FBD        	mov a,-67
 142  0067  0080     R  	mov _lastper[0],a
 142  0068  1F00     R  	clr _lastper[1]
 142  0069  2800     R  	jmp _L4
 142  006A  2800     R  	jmp $
 142  006B              _main endp
 142  006B              
 142  006B              @dummy endp
 142  006B              
 142  006B              #line 142 "C:\Users\992852\Desktop\EVC CODE\EVC Code-HT66 - Digital SUP -Complete\karamozi\my_project\q1\q1.c"
 142  006B              #pragma debug scope 1 1
 142  006B              ___pb equ [58]
 142  006B              ___ptm0al equ [45]
 142  006B              ___ptm0ah equ [46]
 142  006B              ___sadoh equ [33]
 142  006B              ___sadol equ [32]
 142  006B              public _TB0_ISR
 142  006B              #pragma debug scope 3 1
 157  006B              #line 157 "C:\Users\992852\Desktop\EVC CODE\EVC Code-HT66 - Digital SUP -Complete\karamozi\my_project\q1\q1.c"
 157  0000              @TB0_ISR_code .section at 8 'code'
 157  0000  0080     E  	mov r1,a
 157  0001  070A        	mov a,status
 157  0002  0080     E  	mov r2,a
 157  0003  2800     R  	jmp _TB0_ISR
 157  0004              #pragma debug scope 1 1
 157  0004              @dummy8 endp
 157  0004              #pragma debug scope 4 1
 157  0000              _TB0_ISR .section 'code'
 157  0000              _TB0_ISR proc
 159  0000              #line 159 "C:\Users\992852\Desktop\EVC CODE\EVC Code-HT66 - Digital SUP -Complete\karamozi\my_project\q1\q1.c"
 159  0000  073A        	mov a,[58]
 159  0001  0E01        	and a,1
 159  0002  0080     E  	mov rd,a
 159  0003  1F00     E  	clr re
 159  0004  0700     R  	mov a,_last_zc[0]
 159  0005  0080     E  	mov rb,a
 159  0006  1F00     E  	clr rc
 159  0007  0700     E  	mov a,rd
 159  0008  0400     E  	xor a,rb
 159  0009  0700     E  	mov a,re
 159  000A  3D0A        	sz z
 159  000B  0400     E  	xor a,rc
"File: q1.c          Assembler  Version HGASM0202      Page 6

 159  000C  3D0A        	sz z
 159  000D  2800     R  	jmp _L11
 161  000E              #line 161 "C:\Users\992852\Desktop\EVC CODE\EVC Code-HT66 - Digital SUP -Complete\karamozi\my_project\q1\q1.c"
 161  000E  34BD        	clr [61].1
 163  000F              #line 163 "C:\Users\992852\Desktop\EVC CODE\EVC Code-HT66 - Digital SUP -Complete\karamozi\my_project\q1\q1.c"
 163  000F  073A        	mov a,[58]
 163  0010  0E01        	and a,1
 163  0011  0080     R  	mov _last_zc[0],a
 164  0012              #line 164 "C:\Users\992852\Desktop\EVC CODE\EVC Code-HT66 - Digital SUP -Complete\karamozi\my_project\q1\q1.c"
 164  0012  0700     R  	mov a,_lastper[0]
 164  0013  0200     R  	sub a,_trig[0]
 164  0014  0700     R  	mov a,_lastper[1]
 164  0015  1200     R  	sbc a,_trig[1]
 164  0016  3C0A        	sz c
 164  0017  2800     R  	jmp _L12
 164  0018  383A        	snz [58].0
 164  0019  2800     R  	jmp _L12
 165  001A              #line 165 "C:\Users\992852\Desktop\EVC CODE\EVC Code-HT66 - Digital SUP -Complete\karamozi\my_project\q1\q1.c"
 165  001A  0FF6        	mov a,246
 165  001B  0380     R  	addm a,_trig[0]
 165  001C  0FFF        	mov a,255
 165  001D  1380     R  	adcm a,_trig[1]
 165  001E  2800     R  	jmp _L13
 165  001F              _L12:
 167  001F              #line 167 "C:\Users\992852\Desktop\EVC CODE\EVC Code-HT66 - Digital SUP -Complete\karamozi\my_project\q1\q1.c"
 167  001F  383A        	snz [58].0
 167  0020  2800     R  	jmp _L13
 168  0021              #line 168 "C:\Users\992852\Desktop\EVC CODE\EVC Code-HT66 - Digital SUP -Complete\karamozi\my_project\q1\q1.c"
 168  0021  0F0A        	mov a,10
 168  0022  0380     R  	addm a,_trig[0]
 168  0023  0F00        	mov a,0
 168  0024  1380     R  	adcm a,_trig[1]
 168  0025              _L13:
 170  0025              #line 170 "C:\Users\992852\Desktop\EVC CODE\EVC Code-HT66 - Digital SUP -Complete\karamozi\my_project\q1\q1.c"
 170  0025  0700     R  	mov a,_trig[0]
 170  0026  0080     E  	mov rb,a
 170  0027  0700     R  	mov a,_trig[1]
 170  0028  0080     E  	mov rc,a
 170  0029  0700     E  	mov a,rb
 170  002A  00AD        	mov [45],a
 171  002B              #line 171 "C:\Users\992852\Desktop\EVC CODE\EVC Code-HT66 - Digital SUP -Complete\karamozi\my_project\q1\q1.c"
 171  002B  0700     R  	mov a,_trig[0]
 171  002C  0080     E  	mov rb,a
 171  002D  0700     R  	mov a,_trig[1]
 171  002E  0080     E  	mov rc,a
 171  002F  0700     E  	mov a,rc
 171  0030  00AE        	mov [46],a
 173  0031              #line 173 "C:\Users\992852\Desktop\EVC CODE\EVC Code-HT66 - Digital SUP -Complete\karamozi\my_project\q1\q1.c"
 173  0031  31A9        	set [41].3
 173  0032              _L11:
 177  0032              #line 177 "C:\Users\992852\Desktop\EVC CODE\EVC Code-HT66 - Digital SUP -Complete\karamozi\my_project\q1\q1.c"
 177  0032  1080     R  	sz _cntr[0]
 177  0033  2800     R  	jmp _LI1
 177  0034  2800     R  	jmp _L14
 177  0035              _LI1:
 177  0035  3F22        	sz [34].6
 177  0036  2800     R  	jmp _L14
 179  0037              #line 179 "C:\Users\992852\Desktop\EVC CODE\EVC Code-HT66 - Digital SUP -Complete\karamozi\my_project\q1\q1.c"
 179  0037  0721        	mov a,[33]
 179  0038  0080     E  	mov rc,a
"File: q1.c          Assembler  Version HGASM0202      Page 7

 179  0039  1F00     E  	clr rb
 179  003A  0720        	mov a,[32]
 179  003B  0580     E  	orm a,rb
 179  003C  0700     E  	mov a,rb
 179  003D  0380     R  	addm a,_adc_val[0]
 179  003E  0700     E  	mov a,rc
 179  003F  1380     R  	adcm a,_adc_val[1]
 179  0040  1F05        	clr acc
 179  0041  1380     R  	adcm a,_adc_val[2]
 179  0042  1380     R  	adcm a,_adc_val[3]
 180  0043              #line 180 "C:\Users\992852\Desktop\EVC CODE\EVC Code-HT66 - Digital SUP -Complete\karamozi\my_project\q1\q1.c"
 180  0043  1580     R  	dec _cntr[0]
 180  0044  2800     R  	jmp _L25
 180  0045              _L14:
 187  0045              #line 187 "C:\Users\992852\Desktop\EVC CODE\EVC Code-HT66 - Digital SUP -Complete\karamozi\my_project\q1\q1.c"
 187  0045  0F08        	mov a,8
 187  0046  0080     R  	mov _cntr[0],a
 188  0047              #line 188 "C:\Users\992852\Desktop\EVC CODE\EVC Code-HT66 - Digital SUP -Complete\karamozi\my_project\q1\q1.c"
 188  0047  0700     R  	mov a,_adc_val[0]
 188  0048  0080     E  	mov rd,a
 188  0049  0700     R  	mov a,_adc_val[1]
 188  004A  0080     E  	mov re,a
 188  004B  0700     R  	mov a,_adc_val[2]
 188  004C  0080     E  	mov rf,a
 188  004D  0700     R  	mov a,_adc_val[3]
 188  004E  0080     E  	mov rg,a
 188  004F  0F03        	mov a,3
 188  0050              _LI2:
 188  0050  340A        	clr c
 188  0051  1B80     E  	rrc rg
 188  0052  1B80     E  	rrc rf
 188  0053  1B80     E  	rrc re
 188  0054  1B80     E  	rrc rd
 188  0055  1785        	sdz acc
 188  0056  2800     R  	jmp _LI2
 188  0057  0700     E  	mov a,rd
 188  0058  0080     R  	mov _adc_avg[0],a
 188  0059  0700     E  	mov a,re
 188  005A  0080     R  	mov _adc_avg[1],a
 189  005B              #line 189 "C:\Users\992852\Desktop\EVC CODE\EVC Code-HT66 - Digital SUP -Complete\karamozi\my_project\q1\q1.c"
 189  005B  1F00     R  	clr _adc_val[0]
 189  005C  1F00     R  	clr _adc_val[1]
 189  005D  1F00     R  	clr _adc_val[2]
 189  005E  1F00     R  	clr _adc_val[3]
 189  005F              _L25:
 190  005F              #line 190 "C:\Users\992852\Desktop\EVC CODE\EVC Code-HT66 - Digital SUP -Complete\karamozi\my_project\q1\q1.c"
 190  005F  37A2        	clr [34].7
 191  0060              #line 191 "C:\Users\992852\Desktop\EVC CODE\EVC Code-HT66 - Digital SUP -Complete\karamozi\my_project\q1\q1.c"
 191  0060  33A2        	set [34].7
 192  0061              #line 192 "C:\Users\992852\Desktop\EVC CODE\EVC Code-HT66 - Digital SUP -Complete\karamozi\my_project\q1\q1.c"
 192  0061  37A2        	clr [34].7
 192  0062  0700     E  	mov a,r2
 192  0063  008A        	mov status,a
 192  0064  0700     E  	mov a,r1
 192  0065  0004        	reti
 192  0066              _TB0_ISR endp
 192  0066              
 192  0066              #line 192 "C:\Users\992852\Desktop\EVC CODE\EVC Code-HT66 - Digital SUP -Complete\karamozi\my_project\q1\q1.c"
 192  0066              #pragma debug scope 1 1
 192  0066              public _Timer_ISR
"File: q1.c          Assembler  Version HGASM0202      Page 8

 192  0066              #pragma debug scope 5 1
 197  0066              #line 197 "C:\Users\992852\Desktop\EVC CODE\EVC Code-HT66 - Digital SUP -Complete\karamozi\my_project\q1\q1.c"
 197  0000              @Timer_ISR_code .section at 16 'code'
 197  0000  0080     E  	mov r1,a
 197  0001  070A        	mov a,status
 197  0002  0080     E  	mov r2,a
 197  0003  2800     R  	jmp _Timer_ISR
 197  0004              #pragma debug scope 1 1
 197  0004              @dummy16 endp
 197  0004              #pragma debug scope 6 1
 197  0000              _Timer_ISR .section 'code'
 197  0000              _Timer_ISR proc
 198  0000              #line 198 "C:\Users\992852\Desktop\EVC CODE\EVC Code-HT66 - Digital SUP -Complete\karamozi\my_project\q1\q1.c"
 198  0000  3C3D        	sz [61].0
 198  0001  2800     R  	jmp _L27
 200  0002              #line 200 "C:\Users\992852\Desktop\EVC CODE\EVC Code-HT66 - Digital SUP -Complete\karamozi\my_project\q1\q1.c"
 200  0002  303D        	set [61].0
 201  0003              #line 201 "C:\Users\992852\Desktop\EVC CODE\EVC Code-HT66 - Digital SUP -Complete\karamozi\my_project\q1\q1.c"
 201  0003  3691        	clr [17].5
 202  0004              #line 202 "C:\Users\992852\Desktop\EVC CODE\EVC Code-HT66 - Digital SUP -Complete\karamozi\my_project\q1\q1.c"
 202  0004  35A9        	clr [41].3
 205  0005              #line 205 "C:\Users\992852\Desktop\EVC CODE\EVC Code-HT66 - Digital SUP -Complete\karamozi\my_project\q1\q1.c"
 205  0005  0F0C        	mov a,12
 205  0006  00AD        	mov [45],a
 206  0007              #line 206 "C:\Users\992852\Desktop\EVC CODE\EVC Code-HT66 - Digital SUP -Complete\karamozi\my_project\q1\q1.c"
 206  0007  1F2E        	clr [46]
 208  0008              #line 208 "C:\Users\992852\Desktop\EVC CODE\EVC Code-HT66 - Digital SUP -Complete\karamozi\my_project\q1\q1.c"
 208  0008  31A9        	set [41].3
 208  0009  2800     R  	jmp _L26
 208  000A              _L27:
 212  000A              #line 212 "C:\Users\992852\Desktop\EVC CODE\EVC Code-HT66 - Digital SUP -Complete\karamozi\my_project\q1\q1.c"
 212  000A  343D        	clr [61].0
 213  000B              #line 213 "C:\Users\992852\Desktop\EVC CODE\EVC Code-HT66 - Digital SUP -Complete\karamozi\my_project\q1\q1.c"
 213  000B  3691        	clr [17].5
 214  000C              #line 214 "C:\Users\992852\Desktop\EVC CODE\EVC Code-HT66 - Digital SUP -Complete\karamozi\my_project\q1\q1.c"
 214  000C  35A9        	clr [41].3
 214  000D              _L26:
 214  000D  0700     E  	mov a,r2
 214  000E  008A        	mov status,a
 214  000F  0700     E  	mov a,r1
 214  0010  0004        	reti
 214  0011              _Timer_ISR endp
 214  0011              
 214  0011              #line 214 "C:\Users\992852\Desktop\EVC CODE\EVC Code-HT66 - Digital SUP -Complete\karamozi\my_project\q1\q1.c"
 214  0011              #pragma debug scope 1 1
 214  0011              public _ADC_ISR
 214  0011              #pragma debug scope 7 1
 219  0011              #line 219 "C:\Users\992852\Desktop\EVC CODE\EVC Code-HT66 - Digital SUP -Complete\karamozi\my_project\q1\q1.c"
 219  0000              @ADC_ISR_code .section at 24 'code'
 219  0000  0080     E  	mov r1,a
 219  0001  070A        	mov a,status
 219  0002  0080     E  	mov r2,a
 219  0003  2800     R  	jmp _ADC_ISR
 219  0004              #pragma debug scope 1 1
 219  0004              @dummy24 endp
 219  0004              #pragma debug scope 8 1
 219  0000              _ADC_ISR .section 'code'
 219  0000              _ADC_ISR proc
 220  0000              #line 220 "C:\Users\992852\Desktop\EVC CODE\EVC Code-HT66 - Digital SUP -Complete\karamozi\my_project\q1\q1.c"
 220  0000  370F        	clr [15].6
"File: q1.c          Assembler  Version HGASM0202      Page 9

 220  0001  0700     E  	mov a,r2
 220  0002  008A        	mov status,a
 220  0003  0700     E  	mov a,r1
 220  0004  0004        	reti
 220  0005              _ADC_ISR endp
 220  0005              
 220  0005              #line 220 "C:\Users\992852\Desktop\EVC CODE\EVC Code-HT66 - Digital SUP -Complete\karamozi\my_project\q1\q1.c"
 220  0005              #pragma debug scope 1 1
 220  0005              public _i
 220  0000              @HCCINIT	.section 'data'
  11  0000              #line 11 "C:\Users\992852\Desktop\EVC CODE\EVC Code-HT66 - Digital SUP -Complete\karamozi\my_project\q1\q1.c"
  11  0000              @HCCINIT .section 'data'
  11  0000              _i label byte
  11  0000              #pragma debug variable 10 1 _i "i"
  11  0000              	db 0
  11  0000              @ROMDATA_BASE .section inpage 'code'
  11  0000  0900        	ret a,0
  11  0001              @HCCINIT .section 'data'
  11  0001              	db 0
  11  0001              @ROMDATA_BASE .section inpage 'code'
  11  0001  0900        	ret a,0
  11  0002              @HCCINIT .section 'data'
  10  0002              #line 10 "C:\Users\992852\Desktop\EVC CODE\EVC Code-HT66 - Digital SUP -Complete\karamozi\my_project\q1\q1.c"
  10  0002              public _cntr
  10  0000              @HCCINIT0 .section 'data'
  10  0000              _cntr	db 0
  10  0001              #pragma debug variable 8 1 _cntr "cntr"
  10  0001              
  10  0002              @HCCINIT .section 'data'
  10  0002              public _adc_ch1
   9  0002              #line 9 "C:\Users\992852\Desktop\EVC CODE\EVC Code-HT66 - Digital SUP -Complete\karamozi\my_project\q1\q1.c"
   9  0002              @HCCINIT .section 'data'
   9  0002              _adc_ch1 label byte
   9  0002              #pragma debug variable 8 1 _adc_ch1 "adc_ch1"
   9  0002              	db 1
   9  0002              @ROMDATA_BASE .section inpage 'code'
   9  0002  0901        	ret a,1
   9  0003              @HCCINIT .section 'data'
   8  0003              #line 8 "C:\Users\992852\Desktop\EVC CODE\EVC Code-HT66 - Digital SUP -Complete\karamozi\my_project\q1\q1.c"
   8  0003              public _lastper
   8  0001              @HCCINIT0 .section 'data'
   8  0001  0002[       _lastper	db 2 dup(0)
            00
            ]
   8  0003              #pragma debug variable 10 1 _lastper "lastper"
   8  0003              
   8  0003              @HCCINIT .section 'data'
   7  0003              #line 7 "C:\Users\992852\Desktop\EVC CODE\EVC Code-HT66 - Digital SUP -Complete\karamozi\my_project\q1\q1.c"
   7  0003              public _trig
   7  0003              @HCCINIT0 .section 'data'
   7  0003  0002[       _trig	db 2 dup(0)
            00
            ]
   7  0005              #pragma debug variable 10 1 _trig "trig"
   7  0005              
   7  0003              @HCCINIT .section 'data'
   6  0003              #line 6 "C:\Users\992852\Desktop\EVC CODE\EVC Code-HT66 - Digital SUP -Complete\karamozi\my_project\q1\q1.c"
   6  0003              public _last_zc
   6  0005              @HCCINIT0 .section 'data'
   6  0005              _last_zc	db 0
"File: q1.c          Assembler  Version HGASM0202      Page 10

   6  0006              #pragma debug variable 8 1 _last_zc "last_zc"
   6  0006              
   6  0003              @HCCINIT .section 'data'
   5  0003              #line 5 "C:\Users\992852\Desktop\EVC CODE\EVC Code-HT66 - Digital SUP -Complete\karamozi\my_project\q1\q1.c"
   5  0003              public _adc_avg
   5  0006              @HCCINIT0 .section 'data'
   5  0006  0002[       _adc_avg	db 2 dup(0)
            00
            ]
   5  0008              #pragma debug variable 10 1 _adc_avg "adc_avg"
   5  0008              
   5  0003              @HCCINIT .section 'data'
   4  0003              #line 4 "C:\Users\992852\Desktop\EVC CODE\EVC Code-HT66 - Digital SUP -Complete\karamozi\my_project\q1\q1.c"
   4  0003              public _adc_val
   4  0008              @HCCINIT0 .section 'data'
   4  0008  0004[       _adc_val	db 4 dup(0)
            00
            ]
   4  000C              #pragma debug variable 14 1 _adc_val "adc_val"
   4  000C              
   4  0003              @HCCINIT .section 'data'
   4  0003              #pragma debug struct_end
   4  0003              #pragma debug struct_end
   4  0003              #pragma debug union_end
   4  0003              #pragma debug union_end
   4  0003              #pragma debug variable 43 1 ___smod "__smod" 1
   4  0003              #pragma debug struct_end
   4  0003              #pragma debug struct_end
   4  0003              #pragma debug union_end
   4  0003              #pragma debug union_end
   4  0003              #pragma debug variable 45 1 ___intc0 "__intc0" 1
   4  0003              #pragma debug struct_end
   4  0003              #pragma debug struct_end
   4  0003              #pragma debug union_end
   4  0003              #pragma debug union_end
   4  0003              #pragma debug variable 47 1 ___intc1 "__intc1" 1
   4  0003              #pragma debug struct_end
   4  0003              #pragma debug struct_end
   4  0003              #pragma debug union_end
   4  0003              #pragma debug union_end
   4  0003              #pragma debug variable 49 1 ___mfi0 "__mfi0" 1
   4  0003              #pragma debug struct_end
   4  0003              #pragma debug struct_end
   4  0003              #pragma debug union_end
   4  0003              #pragma debug union_end
   4  0003              #pragma debug variable 51 1 ___wdtc "__wdtc" 1
   4  0003              #pragma debug struct_end
   4  0003              #pragma debug struct_end
   4  0003              #pragma debug union_end
   4  0003              #pragma debug union_end
   4  0003              #pragma debug variable 53 1 ___tbc "__tbc" 1
   4  0003              #pragma debug variable 8 1 ___sadol "__sadol" 1
   4  0003              #pragma debug variable 8 1 ___sadoh "__sadoh" 1
   4  0003              #pragma debug struct_end
   4  0003              #pragma debug struct_end
   4  0003              #pragma debug union_end
   4  0003              #pragma debug union_end
   4  0003              #pragma debug variable 55 1 ___sadc0 "__sadc0" 1
   4  0003              #pragma debug struct_end
   4  0003              #pragma debug struct_end
"File: q1.c          Assembler  Version HGASM0202      Page 11

   4  0003              #pragma debug union_end
   4  0003              #pragma debug union_end
   4  0003              #pragma debug variable 57 1 ___sadc1 "__sadc1" 1
   4  0003              #pragma debug struct_end
   4  0003              #pragma debug struct_end
   4  0003              #pragma debug union_end
   4  0003              #pragma debug union_end
   4  0003              #pragma debug variable 59 1 ___sadc2 "__sadc2" 1
   4  0003              #pragma debug struct_end
   4  0003              #pragma debug struct_end
   4  0003              #pragma debug union_end
   4  0003              #pragma debug union_end
   4  0003              #pragma debug variable 61 1 ___pbsr "__pbsr" 1
   4  0003              #pragma debug struct_end
   4  0003              #pragma debug struct_end
   4  0003              #pragma debug union_end
   4  0003              #pragma debug union_end
   4  0003              #pragma debug variable 63 1 ___ptm0c0 "__ptm0c0" 1
   4  0003              #pragma debug struct_end
   4  0003              #pragma debug struct_end
   4  0003              #pragma debug union_end
   4  0003              #pragma debug union_end
   4  0003              #pragma debug variable 65 1 ___ptm0c1 "__ptm0c1" 1
   4  0003              #pragma debug variable 8 1 ___ptm0al "__ptm0al" 1
   4  0003              #pragma debug variable 8 1 ___ptm0ah "__ptm0ah" 1
   4  0003              #pragma debug struct_end
   4  0003              #pragma debug struct_end
   4  0003              #pragma debug union_end
   4  0003              #pragma debug union_end
   4  0003              #pragma debug variable 67 1 ___pb "__pb" 1
   4  0003              #pragma debug struct_end
   4  0003              #pragma debug struct_end
   4  0003              #pragma debug union_end
   4  0003              #pragma debug union_end
   4  0003              #pragma debug variable 69 1 ___pbc "__pbc" 1
   4  0003              #pragma debug struct_end
   4  0003              #pragma debug struct_end
   4  0003              #pragma debug union_end
   4  0003              #pragma debug union_end
   4  0003              #pragma debug variable 71 1 ___pc "__pc" 1
   4  0003              #pragma debug struct_end
   4  0003              #pragma debug struct_end
   4  0003              #pragma debug union_end
   4  0003              #pragma debug union_end
   4  0003              #pragma debug variable 73 1 ___pcc "__pcc" 1
   4  0003              extern r1:byte
   4  0003              extern r2:byte
  15  0003              #line 15 "C:\Users\992852\Desktop\EVC CODE\EVC Code-HT66 - Digital SUP -Complete\karamozi\my_project\q1\q1.c"
  15  0000              @code .section at 0 'code'
  15  0000  2800     R  	jmp _main_startup1
  15  0001              
  15  0001              
  15  0001              ; 
  15  0001              ; Generated by holtek-gcc v3.19, Sat Aug 13 15:23:20 2022
  15  0001              ; Rebuild 718
  15  0001              ; end of file


        0 Errors, 0