"File: q1.c          Assembler  Version HGASM0202      Page 1


   1  0000              ; Generated by holtek-gcc v3.18, Wed Aug 03 11:12:43 2022
   2  0000              ; 
   3  0000              ; Configuration:
   4  0000              ;       without long instruction
   5  0000              ;       Single ROM, Multi-RAM
   6  0000              ;       bits_per_rom_unit:15
   7  0000              ;       with mp1
   8  0000              ;       with tbhp, address(0x1f)
   9  0000              ;          Use ret-const
  10  0000              ;       
  11  0000              ;       
  12  0000              ;       
  13  0000              ; use 'tabrdc' instead of 'tabrd'
  14  0000              ;       
  15  0000              
  16  0000              #pragma translator "holtek-gcc 4.6.4" "3.18" "build 20130711"
  17  0000              ; Rebuild 126
  18  0000              
  19  0000              ir equ [2]
  20  0000              mp equ [3]
  21  0000              sbp equ [7]
  22  0000              acc equ [5]
  23  0000              bp equ [4]
  24  0000              status equ [10]
  25  0000              c equ [10].0
  26  0000              ac equ [10].1
  27  0000              z equ [10].2
  28  0000              ov equ [10].3
  29  0000              intc equ [11]
  30  0000              
  31  0000              extern ra:byte
  32  0000              extern rb:byte
  33  0000              extern rc:byte
  34  0000              extern rd:byte
  35  0000              extern re:byte
  36  0000              extern rf:byte
  37  0000              extern rg:byte
  38  0000              extern rh:byte
  39  0000              extern _Crom2Prom:near
  40  0000              extern _Crom2PromNext:near
  41  0000              
  42  0000              RAMBANK 0 @HCCINIT, @HCCINIT0
  43  0000              
  44  0000              RAMBANK 0 @BITDATASEC, @BITDATASEC1
  45  0000              @HCCINIT	.section 'data'
  46  0000              @HCCINIT0	.section 'data'
  47  0000              @BITDATASEC	 .section 'data'
  48  0000              @BITDATASEC1	 .section 'data'
  49  0000              
  50  0000              #pragma debug scope 1 1
  51  0000              	extern __DELAY3:near
  52  0000              	extern __DELAYX3:near
  53  0000              	extern __DELAYX6:near
  54  0000              	extern __DELAYY5:near
  55  0000              	extern __DELAYY3:near
  56  0000              	extern _builtin_holtek_delay_2:byte
  57  0000              ___wdtc equ [25]
  58  0000              ___smod equ [11]
  59  0000              ___pbc equ [59]
"File: q1.ASM        Assembler  Version HGASM0202      Page 2

  60  0000              ___pcc equ [62]
  61  0000              ___pc equ [61]
  62  0000              ___pac equ [21]
  63  0000              ___pa equ [20]
  64  0000              ___pb equ [58]
  65  0000              ___tbc equ [27]
  66  0000              ___ptm0c1 equ [42]
  67  0000              ___ptm0c0 equ [41]
  68  0000              ___intc0 equ [14]
  69  0000              ___intc1 equ [15]
  70  0000              ___mfi0 equ [17]
  71  0000              ___sadc1 equ [35]
  72  0000              ___sadc2 equ [36]
  73  0000              ___sadc0 equ [34]
  74  0000              ___pbsr equ [39]
  75  0000              public _main
  76  0000              #pragma debug scope 2 1

  16  0000              #line 16 "G:\ALTIUM\q1\q1\q1.c"
  16  0000              IFDEF WITH_DEFAULT_STARTUP
  16  0000              extern _main_initial0:near
  16  0000              extern _main_startup:near
  16  0000              ENDIF
  16  0000              
  16  0000              ROMBANK 0 @start
  16  0000              @start .section com_l 'code'
  16  0000              _main_startup1:
  16  0000              @start .section com_e 'code'
  16  0000  2800     R  	jmp _main
  16  0001              
  16  0000              _main .section 'code'
  16  0000              _main proc
  18  0000              #line 18 "G:\ALTIUM\q1\q1\q1.c"
  18  0000  3519        	clr [25].2
  19  0001              #line 19 "G:\ALTIUM\q1\q1\q1.c"
  19  0001  3099        	set [25].1
  20  0002              #line 20 "G:\ALTIUM\q1\q1\q1.c"
  20  0002  3019        	set [25].0
  22  0003              #line 22 "G:\ALTIUM\q1\q1\q1.c"
  22  0003  3799        	clr [25].7
  22  0004  3319        	set [25].6
  22  0005  3699        	clr [25].5
  22  0006  3219        	set [25].4
  22  0007  3599        	clr [25].3
  24  0008              #line 24 "G:\ALTIUM\q1\q1\q1.c"
  24  0008  300B        	set [11].0
  27  0009              #line 27 "G:\ALTIUM\q1\q1\q1.c"
  27  0009  303B        	set [59].0
  30  000A              #line 30 "G:\ALTIUM\q1\q1\q1.c"
  30  000A  30BB        	set [59].1
  33  000B              #line 33 "G:\ALTIUM\q1\q1\q1.c"
  33  000B  343E        	clr [62].0
  34  000C              #line 34 "G:\ALTIUM\q1\q1\q1.c"
  34  000C  343D        	clr [61].0
  37  000D              #line 37 "G:\ALTIUM\q1\q1\q1.c"
  37  000D  3595        	clr [21].3
  38  000E              #line 38 "G:\ALTIUM\q1\q1\q1.c"
  38  000E  3594        	clr [20].3
  40  000F              #line 40 "G:\ALTIUM\q1\q1\q1.c"
  40  000F  3615        	clr [21].4
"File: q1.c          Assembler  Version HGASM0202      Page 3

  41  0010              #line 41 "G:\ALTIUM\q1\q1\q1.c"
  41  0010  3614        	clr [20].4
  43  0011              #line 43 "G:\ALTIUM\q1\q1\q1.c"
  43  0011  1F00     R  	clr _last_zc[0]
  43  0012  3CBA        	sz [58].1
  43  0013  1480     R  	inc _last_zc[0]
  45  0014              #line 45 "G:\ALTIUM\q1\q1\q1.c"
  45  0014  0F71        	mov a,113
  45  0015  0080     R  	mov _trig[0],a
  45  0016  0F02        	mov a,2
  45  0017  0080     R  	mov _trig[1],a
  46  0018              #line 46 "G:\ALTIUM\q1\q1\q1.c"
  46  0018  0F72        	mov a,114
  46  0019  0080     R  	mov _lastper[0],a
  46  001A  0F02        	mov a,2
  46  001B  0080     R  	mov _lastper[1],a
  47  001C              #line 47 "G:\ALTIUM\q1\q1\q1.c"
  47  001C  1F00     R  	clr _adc_val[0]
  47  001D  1F00     R  	clr _adc_val[1]
  48  001E              #line 48 "G:\ALTIUM\q1\q1\q1.c"
  48  001E  0F08        	mov a,8
  48  001F  0080     R  	mov _cntr[0],a
  50  0020              #line 50 "G:\ALTIUM\q1\q1\q1.c"
  50  0020  331B        	set [27].6
  52  0021              #line 52 "G:\ALTIUM\q1\q1\q1.c"
  52  0021  311B        	set [27].2
  53  0022              #line 53 "G:\ALTIUM\q1\q1\q1.c"
  53  0022  309B        	set [27].1
  54  0023              #line 54 "G:\ALTIUM\q1\q1\q1.c"
  54  0023  301B        	set [27].0
  57  0024              #line 57 "G:\ALTIUM\q1\q1\q1.c"
  57  0024  33AA        	set [42].7
  58  0025              #line 58 "G:\ALTIUM\q1\q1\q1.c"
  58  0025  332A        	set [42].6
  60  0026              #line 60 "G:\ALTIUM\q1\q1\q1.c"
  60  0026  3729        	clr [41].6
  61  0027              #line 61 "G:\ALTIUM\q1\q1\q1.c"
  61  0027  32A9        	set [41].5
  62  0028              #line 62 "G:\ALTIUM\q1\q1\q1.c"
  62  0028  3229        	set [41].4
  64  0029              #line 64 "G:\ALTIUM\q1\q1\q1.c"
  64  0029  302A        	set [42].0
  67  002A              #line 67 "G:\ALTIUM\q1\q1\q1.c"
  67  002A  310E        	set [14].2
  69  002B              #line 69 "G:\ALTIUM\q1\q1\q1.c"
  69  002B  360F        	clr [15].4
  70  002C              #line 70 "G:\ALTIUM\q1\q1\q1.c"
  70  002C  300F        	set [15].0
  72  002D              #line 72 "G:\ALTIUM\q1\q1\q1.c"
  72  002D  3691        	clr [17].5
  73  002E              #line 73 "G:\ALTIUM\q1\q1\q1.c"
  73  002E  3091        	set [17].1
  76  002F              #line 76 "G:\ALTIUM\q1\q1\q1.c"
  76  002F  300E        	set [14].0
  79  0030              #line 79 "G:\ALTIUM\q1\q1\q1.c"
  79  0030  339B        	set [27].7
  83  0031              #line 83 "G:\ALTIUM\q1\q1\q1.c"
  83  0031  3523        	clr [35].2
  84  0032              #line 84 "G:\ALTIUM\q1\q1\q1.c"
  84  0032  30A3        	set [35].1
"File: q1.c          Assembler  Version HGASM0202      Page 4

  85  0033              #line 85 "G:\ALTIUM\q1\q1\q1.c"
  85  0033  3023        	set [35].0
  88  0034              #line 88 "G:\ALTIUM\q1\q1\q1.c"
  88  0034  35A4        	clr [36].3
  89  0035              #line 89 "G:\ALTIUM\q1\q1\q1.c"
  89  0035  3524        	clr [36].2
  90  0036              #line 90 "G:\ALTIUM\q1\q1\q1.c"
  90  0036  34A4        	clr [36].1
  91  0037              #line 91 "G:\ALTIUM\q1\q1\q1.c"
  91  0037  3424        	clr [36].0
  94  0038              #line 94 "G:\ALTIUM\q1\q1\q1.c"
  94  0038  3222        	set [34].4
  99  0039              #line 99 "G:\ALTIUM\q1\q1\q1.c"
  99  0039  0FF8        	mov a,248
  99  003A  06A2        	andm a,[34]
 102  003B              #line 102 "G:\ALTIUM\q1\q1\q1.c"
 102  003B  0700     R  	mov a,_adc_ch0[0]
 102  003C  05A2        	orm a,[34]
 104  003D              #line 104 "G:\ALTIUM\q1\q1\q1.c"
 104  003D  3027        	set [39].0
 107  003E              #line 107 "G:\ALTIUM\q1\q1\q1.c"
 107  003E  32A2        	set [34].5
 110  003F              #line 110 "G:\ALTIUM\q1\q1\q1.c"
 110  003F  370F        	clr [15].6
 111  0040              #line 111 "G:\ALTIUM\q1\q1\q1.c"
 111  0040  310F        	set [15].2
 111  0041              _L9:
 112  0041              #line 112 "G:\ALTIUM\q1\q1\q1.c"
 112  0041  37A2        	clr [34].7
 112  0042  33A2        	set [34].7
 112  0043  37A2        	clr [34].7
 112  0044              _L7:
 116  0044              #line 116 "G:\ALTIUM\q1\q1\q1.c"
 116  0044  1080     R  	sz _cntr[0]
 116  0045  2800     R  	jmp _L2
 118  0046              #line 118 "G:\ALTIUM\q1\q1\q1.c"
 118  0046  0FFF        	mov a,255
 118  0047  0200     R  	sub a,_adc_val[0]
 118  0048  0F03        	mov a,3
 118  0049  1200     R  	sbc a,_adc_val[1]
 118  004A  380A        	snz c
 118  004B  2800     R  	jmp _L3
 120  004C              #line 120 "G:\ALTIUM\q1\q1\q1.c"
 120  004C  0FAB        	mov a,-85
 120  004D  0080     R  	mov _lastper[0],a
 120  004E  0F03        	mov a,3
 120  004F  0080     R  	mov _lastper[1],a
 121  0050              #line 121 "G:\ALTIUM\q1\q1\q1.c"
 121  0050  3594        	clr [20].3
 121  0051  2800     R  	jmp _L10
 121  0052              _L3:
 124  0052              #line 124 "G:\ALTIUM\q1\q1\q1.c"
 124  0052  0FFF        	mov a,255
 124  0053  0200     R  	sub a,_adc_val[0]
 124  0054  0F07        	mov a,7
 124  0055  1200     R  	sbc a,_adc_val[1]
 124  0056  380A        	snz c
 124  0057  2800     R  	jmp _L4
 126  0058              #line 126 "G:\ALTIUM\q1\q1\q1.c"
 126  0058  0FB1        	mov a,-79
"File: q1.c          Assembler  Version HGASM0202      Page 5

 126  0059  0080     R  	mov _lastper[0],a
 126  005A  0F02        	mov a,2
 126  005B  0080     R  	mov _lastper[1],a
 127  005C              #line 127 "G:\ALTIUM\q1\q1\q1.c"
 127  005C  3194        	set [20].3
 127  005D              _L10:
 128  005D              #line 128 "G:\ALTIUM\q1\q1\q1.c"
 128  005D  3614        	clr [20].4
 128  005E  2800     R  	jmp _L2
 128  005F              _L4:
 130  005F              #line 130 "G:\ALTIUM\q1\q1\q1.c"
 130  005F  0FFF        	mov a,255
 130  0060  0200     R  	sub a,_adc_val[0]
 130  0061  0F0B        	mov a,11
 130  0062  1200     R  	sbc a,_adc_val[1]
 130  0063  380A        	snz c
 130  0064  2800     R  	jmp _L5
 132  0065              #line 132 "G:\ALTIUM\q1\q1\q1.c"
 132  0065  0F3A        	mov a,58
 132  0066  0080     R  	mov _lastper[0],a
 132  0067  0F01        	mov a,1
 132  0068  0080     R  	mov _lastper[1],a
 133  0069              #line 133 "G:\ALTIUM\q1\q1\q1.c"
 133  0069  3594        	clr [20].3
 133  006A  2800     R  	jmp _L11
 133  006B              _L5:
 138  006B              #line 138 "G:\ALTIUM\q1\q1\q1.c"
 138  006B  0FBD        	mov a,-67
 138  006C  0080     R  	mov _lastper[0],a
 138  006D  1F00     R  	clr _lastper[1]
 139  006E              #line 139 "G:\ALTIUM\q1\q1\q1.c"
 139  006E  3194        	set [20].3
 139  006F              _L11:
 140  006F              #line 140 "G:\ALTIUM\q1\q1\q1.c"
 140  006F  3214        	set [20].4
 140  0070              _L2:
 144  0070              #line 144 "G:\ALTIUM\q1\q1\q1.c"
 144  0070  3F22        	sz [34].6
 144  0071  2800     R  	jmp _L7
 144  0072  2800     R  	jmp _L9
 144  0073  2800     R  	jmp $
 144  0074              _main endp
 144  0074              
 144  0074              @dummy endp
 144  0074              
 144  0074              #line 144 "G:\ALTIUM\q1\q1\q1.c"
 144  0074              #pragma debug scope 1 1
 144  0074              ___ptm0al equ [45]
 144  0074              ___ptm0ah equ [46]
 144  0074              public _TB0_ISR
 144  0074              #pragma debug scope 3 1
 151  0074              #line 151 "G:\ALTIUM\q1\q1\q1.c"
 151  0000              @TB0_ISR_code .section at 8 'code'
 151  0000  0080     E  	mov r1,a
 151  0001  070A        	mov a,status
 151  0002  0080     E  	mov r2,a
 151  0003  2800     R  	jmp _TB0_ISR
 151  0004              #pragma debug scope 1 1
 151  0004              @dummy8 endp
 151  0004              #pragma debug scope 4 1
"File: q1.c          Assembler  Version HGASM0202      Page 6

 151  0000              _TB0_ISR .section 'code'
 151  0000              _TB0_ISR proc
 153  0000              #line 153 "G:\ALTIUM\q1\q1\q1.c"
 153  0000  1F00     E  	clr rd
 153  0001  3CBA        	sz [58].1
 153  0002  1480     E  	inc rd
 153  0003  1F00     E  	clr re
 153  0004  0700     R  	mov a,_last_zc[0]
 153  0005  0080     E  	mov rb,a
 153  0006  1F00     E  	clr rc
 153  0007  0700     E  	mov a,rd
 153  0008  0400     E  	xor a,rb
 153  0009  0700     E  	mov a,re
 153  000A  3D0A        	sz z
 153  000B  0400     E  	xor a,rc
 153  000C  3D0A        	sz z
 153  000D  2800     R  	jmp _L13
 155  000E              #line 155 "G:\ALTIUM\q1\q1\q1.c"
 155  000E  1F00     R  	clr _last_zc[0]
 155  000F  3CBA        	sz [58].1
 155  0010  1480     R  	inc _last_zc[0]
 156  0011              #line 156 "G:\ALTIUM\q1\q1\q1.c"
 156  0011  0700     R  	mov a,_lastper[0]
 156  0012  0200     R  	sub a,_trig[0]
 156  0013  0700     R  	mov a,_lastper[1]
 156  0014  1200     R  	sbc a,_trig[1]
 156  0015  3C0A        	sz c
 156  0016  2800     R  	jmp _L15
 156  0017  38BA        	snz [58].1
 156  0018  2800     R  	jmp _L15
 157  0019              #line 157 "G:\ALTIUM\q1\q1\q1.c"
 157  0019  0FF6        	mov a,246
 157  001A  0380     R  	addm a,_trig[0]
 157  001B  0FFF        	mov a,255
 157  001C  1380     R  	adcm a,_trig[1]
 157  001D  2800     R  	jmp _L16
 157  001E              _L15:
 159  001E              #line 159 "G:\ALTIUM\q1\q1\q1.c"
 159  001E  38BA        	snz [58].1
 159  001F  2800     R  	jmp _L16
 160  0020              #line 160 "G:\ALTIUM\q1\q1\q1.c"
 160  0020  0F0A        	mov a,10
 160  0021  0380     R  	addm a,_trig[0]
 160  0022  0F00        	mov a,0
 160  0023  1380     R  	adcm a,_trig[1]
 160  0024              _L16:
 162  0024              #line 162 "G:\ALTIUM\q1\q1\q1.c"
 162  0024  0700     R  	mov a,_trig[0]
 162  0025  0080     E  	mov rb,a
 162  0026  0700     R  	mov a,_trig[1]
 162  0027  0080     E  	mov rc,a
 162  0028  0700     E  	mov a,rb
 162  0029  00AD        	mov [45],a
 163  002A              #line 163 "G:\ALTIUM\q1\q1\q1.c"
 163  002A  0700     R  	mov a,_trig[0]
 163  002B  0080     E  	mov rb,a
 163  002C  0700     R  	mov a,_trig[1]
 163  002D  0080     E  	mov rc,a
 163  002E  0700     E  	mov a,rc
 163  002F  00AE        	mov [46],a
"File: q1.c          Assembler  Version HGASM0202      Page 7

 165  0030              #line 165 "G:\ALTIUM\q1\q1\q1.c"
 165  0030  31A9        	set [41].3
 165  0031              _L13:
 165  0031  0700     E  	mov a,r2
 165  0032  008A        	mov status,a
 165  0033  0700     E  	mov a,r1
 165  0034  0004        	reti
 165  0035              _TB0_ISR endp
 165  0035              
 165  0035              #line 165 "G:\ALTIUM\q1\q1\q1.c"
 165  0035              #pragma debug scope 1 1
 165  0035              public _Timer_ISR
 165  0035              #pragma debug scope 5 1
 171  0035              #line 171 "G:\ALTIUM\q1\q1\q1.c"
 171  0000              @Timer_ISR_code .section at 16 'code'
 171  0000  0080     E  	mov r1,a
 171  0001  070A        	mov a,status
 171  0002  0080     E  	mov r2,a
 171  0003  2800     R  	jmp _Timer_ISR
 171  0004              #pragma debug scope 1 1
 171  0004              @dummy16 endp
 171  0004              #pragma debug scope 6 1
 171  0000              _Timer_ISR .section 'code'
 171  0000              _Timer_ISR proc
 172  0000              #line 172 "G:\ALTIUM\q1\q1\q1.c"
 172  0000  3C3D        	sz [61].0
 172  0001  2800     R  	jmp _L24
 174  0002              #line 174 "G:\ALTIUM\q1\q1\q1.c"
 174  0002  303D        	set [61].0
 175  0003              #line 175 "G:\ALTIUM\q1\q1\q1.c"
 175  0003  3691        	clr [17].5
 176  0004              #line 176 "G:\ALTIUM\q1\q1\q1.c"
 176  0004  35A9        	clr [41].3
 177  0005              #line 177 "G:\ALTIUM\q1\q1\q1.c"
 177  0005  0F01        	mov a,1
 177  0006  00AD        	mov [45],a
 178  0007              #line 178 "G:\ALTIUM\q1\q1\q1.c"
 178  0007  1F2E        	clr [46]
 179  0008              #line 179 "G:\ALTIUM\q1\q1\q1.c"
 179  0008  31A9        	set [41].3
 179  0009  2800     R  	jmp _L23
 179  000A              _L24:
 183  000A              #line 183 "G:\ALTIUM\q1\q1\q1.c"
 183  000A  343D        	clr [61].0
 184  000B              #line 184 "G:\ALTIUM\q1\q1\q1.c"
 184  000B  3691        	clr [17].5
 185  000C              #line 185 "G:\ALTIUM\q1\q1\q1.c"
 185  000C  35A9        	clr [41].3
 185  000D              _L23:
 185  000D  0700     E  	mov a,r2
 185  000E  008A        	mov status,a
 185  000F  0700     E  	mov a,r1
 185  0010  0004        	reti
 185  0011              _Timer_ISR endp
 185  0011              
 185  0011              #line 185 "G:\ALTIUM\q1\q1\q1.c"
 185  0011              #pragma debug scope 1 1
 185  0011              ___sadoh equ [33]
 185  0011              ___sadol equ [32]
 185  0011              public _ADC_ISR
"File: q1.c          Assembler  Version HGASM0202      Page 8

 185  0011              #pragma debug scope 7 1
 192  0011              #line 192 "G:\ALTIUM\q1\q1\q1.c"
 192  0000              @ADC_ISR_code .section at 24 'code'
 192  0000  0080     E  	mov r1,a
 192  0001  070A        	mov a,status
 192  0002  0080     E  	mov r2,a
 192  0003  2800     R  	jmp _ADC_ISR
 192  0004              #pragma debug scope 1 1
 192  0004              @dummy24 endp
 192  0004              #pragma debug scope 8 1
 192  0000              _ADC_ISR .section 'code'
 192  0000              _ADC_ISR proc
 193  0000              #line 193 "G:\ALTIUM\q1\q1\q1.c"
 193  0000  370F        	clr [15].6
 195  0001              #line 195 "G:\ALTIUM\q1\q1\q1.c"
 195  0001  1080     R  	sz _cntr[0]
 195  0002  2800     R  	jmp _LI1
 195  0003  2800     R  	jmp _L27
 195  0004              _LI1:
 197  0004              #line 197 "G:\ALTIUM\q1\q1\q1.c"
 197  0004  0721        	mov a,[33]
 197  0005  0080     E  	mov rc,a
 197  0006  1F00     E  	clr rb
 197  0007  0720        	mov a,[32]
 197  0008  0580     E  	orm a,rb
 197  0009  0700     E  	mov a,rb
 197  000A  0380     R  	addm a,_adc_val[0]
 197  000B  0700     E  	mov a,rc
 197  000C  1380     R  	adcm a,_adc_val[1]
 198  000D              #line 198 "G:\ALTIUM\q1\q1\q1.c"
 198  000D  1580     R  	dec _cntr[0]
 198  000E  2800     R  	jmp _L26
 198  000F              _L27:
 202  000F              #line 202 "G:\ALTIUM\q1\q1\q1.c"
 202  000F  0F08        	mov a,8
 202  0010  0080     R  	mov _cntr[0],a
 203  0011              #line 203 "G:\ALTIUM\q1\q1\q1.c"
 203  0011  0F03        	mov a,3
 203  0012              _LI2:
 203  0012  340A        	clr c
 203  0013  1B80     R  	rrc _adc_val[1]
 203  0014  1B80     R  	rrc _adc_val[0]
 203  0015  1785        	sdz acc
 203  0016  2800     R  	jmp _LI2
 203  0017              _L26:
 203  0017  0700     E  	mov a,r2
 203  0018  008A        	mov status,a
 203  0019  0700     E  	mov a,r1
 203  001A  0004        	reti
 203  001B              _ADC_ISR endp
 203  001B              
 203  001B              #line 203 "G:\ALTIUM\q1\q1\q1.c"
 203  001B              #pragma debug scope 1 1
 203  0000              @HCCINIT0	.section	'data'
 203  0000              _cntr	db 0
 203  0001              #pragma debug variable 8 1 _cntr "cntr"
 203  0001              
 203  0000              @HCCINIT .section 'data'
 203  0001              @HCCINIT0	.section	'data'
 203  0001              _adc_ch0	db 0
"File: q1.c          Assembler  Version HGASM0202      Page 9

 203  0002              #pragma debug variable 8 1 _adc_ch0 "adc_ch0"
 203  0002              
 203  0000              @HCCINIT .section 'data'
 203  0002              @HCCINIT0	.section	'data'
 203  0002  0002[       _lastper	db 2 dup(0)
            00
            ]
 203  0004              #pragma debug variable 12 1 _lastper "lastper"
 203  0004              
 203  0000              @HCCINIT .section 'data'
 203  0004              @HCCINIT0	.section	'data'
 203  0004  0002[       _trig	db 2 dup(0)
            00
            ]
 203  0006              #pragma debug variable 12 1 _trig "trig"
 203  0006              
 203  0000              @HCCINIT .section 'data'
 203  0006              @HCCINIT0	.section	'data'
 203  0006              _last_zc	db 0
 203  0007              #pragma debug variable 8 1 _last_zc "last_zc"
 203  0007              
 203  0000              @HCCINIT .section 'data'
 203  0007              @HCCINIT0	.section	'data'
 203  0007  0002[       _adc_val	db 2 dup(0)
            00
            ]
 203  0009              #pragma debug variable 12 1 _adc_val "adc_val"
 203  0009              
 203  0000              @HCCINIT .section 'data'
 203  0000              #pragma debug struct_end
 203  0000              #pragma debug struct_end
 203  0000              #pragma debug union_end
 203  0000              #pragma debug union_end
 203  0000              #pragma debug variable 43 1 ___smod "__smod" 1
 203  0000              #pragma debug struct_end
 203  0000              #pragma debug struct_end
 203  0000              #pragma debug union_end
 203  0000              #pragma debug union_end
 203  0000              #pragma debug variable 45 1 ___intc0 "__intc0" 1
 203  0000              #pragma debug struct_end
 203  0000              #pragma debug struct_end
 203  0000              #pragma debug union_end
 203  0000              #pragma debug union_end
 203  0000              #pragma debug variable 47 1 ___intc1 "__intc1" 1
 203  0000              #pragma debug struct_end
 203  0000              #pragma debug struct_end
 203  0000              #pragma debug union_end
 203  0000              #pragma debug union_end
 203  0000              #pragma debug variable 49 1 ___mfi0 "__mfi0" 1
 203  0000              #pragma debug struct_end
 203  0000              #pragma debug struct_end
 203  0000              #pragma debug union_end
 203  0000              #pragma debug union_end
 203  0000              #pragma debug variable 51 1 ___pa "__pa" 1
 203  0000              #pragma debug struct_end
 203  0000              #pragma debug struct_end
 203  0000              #pragma debug union_end
 203  0000              #pragma debug union_end
 203  0000              #pragma debug variable 53 1 ___pac "__pac" 1
 203  0000              #pragma debug struct_end
"File: q1.c          Assembler  Version HGASM0202      Page 10

 203  0000              #pragma debug struct_end
 203  0000              #pragma debug union_end
 203  0000              #pragma debug union_end
 203  0000              #pragma debug variable 55 1 ___wdtc "__wdtc" 1
 203  0000              #pragma debug struct_end
 203  0000              #pragma debug struct_end
 203  0000              #pragma debug union_end
 203  0000              #pragma debug union_end
 203  0000              #pragma debug variable 57 1 ___tbc "__tbc" 1
 203  0000              #pragma debug variable 8 1 ___sadol "__sadol" 1
 203  0000              #pragma debug variable 8 1 ___sadoh "__sadoh" 1
 203  0000              #pragma debug struct_end
 203  0000              #pragma debug struct_end
 203  0000              #pragma debug union_end
 203  0000              #pragma debug union_end
 203  0000              #pragma debug variable 59 1 ___sadc0 "__sadc0" 1
 203  0000              #pragma debug struct_end
 203  0000              #pragma debug struct_end
 203  0000              #pragma debug union_end
 203  0000              #pragma debug union_end
 203  0000              #pragma debug variable 61 1 ___sadc1 "__sadc1" 1
 203  0000              #pragma debug struct_end
 203  0000              #pragma debug struct_end
 203  0000              #pragma debug union_end
 203  0000              #pragma debug union_end
 203  0000              #pragma debug variable 63 1 ___sadc2 "__sadc2" 1
 203  0000              #pragma debug struct_end
 203  0000              #pragma debug struct_end
 203  0000              #pragma debug union_end
 203  0000              #pragma debug union_end
 203  0000              #pragma debug variable 65 1 ___pbsr "__pbsr" 1
 203  0000              #pragma debug struct_end
 203  0000              #pragma debug struct_end
 203  0000              #pragma debug union_end
 203  0000              #pragma debug union_end
 203  0000              #pragma debug variable 67 1 ___ptm0c0 "__ptm0c0" 1
 203  0000              #pragma debug struct_end
 203  0000              #pragma debug struct_end
 203  0000              #pragma debug union_end
 203  0000              #pragma debug union_end
 203  0000              #pragma debug variable 69 1 ___ptm0c1 "__ptm0c1" 1
 203  0000              #pragma debug variable 8 1 ___ptm0al "__ptm0al" 1
 203  0000              #pragma debug variable 8 1 ___ptm0ah "__ptm0ah" 1
 203  0000              #pragma debug struct_end
 203  0000              #pragma debug struct_end
 203  0000              #pragma debug union_end
 203  0000              #pragma debug union_end
 203  0000              #pragma debug variable 71 1 ___pb "__pb" 1
 203  0000              #pragma debug struct_end
 203  0000              #pragma debug struct_end
 203  0000              #pragma debug union_end
 203  0000              #pragma debug union_end
 203  0000              #pragma debug variable 73 1 ___pbc "__pbc" 1
 203  0000              #pragma debug struct_end
 203  0000              #pragma debug struct_end
 203  0000              #pragma debug union_end
 203  0000              #pragma debug union_end
 203  0000              #pragma debug variable 75 1 ___pc "__pc" 1
 203  0000              #pragma debug struct_end
 203  0000              #pragma debug struct_end
"File: q1.c          Assembler  Version HGASM0202      Page 11

 203  0000              #pragma debug union_end
 203  0000              #pragma debug union_end
 203  0000              #pragma debug variable 77 1 ___pcc "__pcc" 1
 203  0000              extern r1:byte
 203  0000              extern r2:byte
  16  0000              #line 16 "G:\ALTIUM\q1\q1\q1.c"
  16  0000              @code .section at 0 'code'
  16  0000  2800     R  	jmp _main_startup1
  16  0001              
  16  0001              
  16  0001              ; 
  16  0001              ; Generated by holtek-gcc v3.18, Wed Aug 03 11:12:43 2022
  16  0001              ; Rebuild 126
  16  0001              ; end of file


        0 Errors, 0